target datalayout = "e-m:e-p270:32:32-p271:32:32-p272:64:64-i64:64-i128:128-f80:128-n8:16:32:64-S128"
target triple = "x86_64-pc-linux-gnu"

@hf_ipp_name = internal global i32 0, align 4
@hf_ipp_boolean_value = internal global i32 0, align 4
@hf_ipp_integer_value = internal global i32 0, align 4
@hf_ipp_enum_value = internal global i32 0, align 4
@hf_ipp_enum_value_printer_state = internal global i32 0, align 4
@.str.18 = private unnamed_addr constant [14 x i8] c"printer-state\00", align 1
@hf_ipp_enum_value_job_state = internal global i32 0, align 4
@.str.19 = private unnamed_addr constant [10 x i8] c"job-state\00", align 1
@hf_ipp_enum_value_document_state = internal global i32 0, align 4
@.str.20 = private unnamed_addr constant [15 x i8] c"document-state\00", align 1
@hf_ipp_enum_value_operations_supported = internal global i32 0, align 4
@.str.21 = private unnamed_addr constant [21 x i8] c"operations-supported\00", align 1
@hf_ipp_enum_value_finishings = internal global i32 0, align 4
@.str.22 = private unnamed_addr constant [11 x i8] c"finishings\00", align 1
@hf_ipp_enum_value_orientation = internal global i32 0, align 4
@hf_ipp_enum_value_print_quality = internal global i32 0, align 4
@.str.24 = private unnamed_addr constant [14 x i8] c"print-quality\00", align 1
@hf_ipp_enum_value_transmission_status = internal global i32 0, align 4
@.str.25 = private unnamed_addr constant [20 x i8] c"transmission-status\00", align 1
@.str.350 = private unnamed_addr constant [22 x i8] c"orientation-requested\00", align 1
@.str.351 = private unnamed_addr constant [23 x i8] c"media-feed-orientation\00", align 1
@.str.354 = private unnamed_addr constant [32 x i8] c"boolean value: ??? %d bytes ???\00", align 1
@.str.355 = private unnamed_addr constant [32 x i8] c"integer value: ??? %d bytes ???\00", align 1
@.str.356 = private unnamed_addr constant [17 x i8] c"??? %d bytes ???\00", align 1
@.str.357 = private unnamed_addr constant [27 x i8] c"%s value: ??? %d bytes ???\00", align 1

; Function Attrs: null_pointer_is_valid sspstrong uwtable
define internal void @add_integer_value(ptr noundef %0, ptr noundef %1, ptr noundef %2, i32 noundef %3, i32 noundef %4, ptr noundef %5, i32 noundef %6, i8 noundef zeroext %7) #0 {
  %9 = alloca ptr, align 8
  %10 = alloca ptr, align 8
  %11 = alloca ptr, align 8
  %12 = alloca i32, align 4
  %13 = alloca i32, align 4
  %14 = alloca ptr, align 8
  %15 = alloca i32, align 4
  %16 = alloca i8, align 1
  %17 = alloca i32, align 4
  store ptr %0, ptr %9, align 8
  store ptr %1, ptr %10, align 8
  store ptr %2, ptr %11, align 8
  store i32 %3, ptr %12, align 4
  store i32 %4, ptr %13, align 4
  store ptr %5, ptr %14, align 8
  store i32 %6, ptr %15, align 4
  store i8 %7, ptr %16, align 1
  call void @llvm.lifetime.start.p0(i64 4, ptr %17) #10
  %18 = load i32, ptr %12, align 4
  %19 = add i32 %18, 1
  %20 = add i32 %19, 2
  %21 = load i32, ptr %13, align 4
  %22 = add i32 %20, %21
  %23 = add i32 %22, 2
  store i32 %23, ptr %17, align 4
  %24 = load i32, ptr %13, align 4
  %25 = icmp sgt i32 %24, 0
  br i1 %25, label %26, label %35

26:                                               ; preds = %8
  %27 = load ptr, ptr %10, align 8
  %28 = load i32, ptr @hf_ipp_name, align 4
  %29 = load ptr, ptr %11, align 8
  %30 = load i32, ptr %12, align 4
  %31 = add i32 %30, 1
  %32 = add i32 %31, 2
  %33 = load i32, ptr %13, align 4
  %34 = call ptr @proto_tree_add_item(ptr noundef %27, i32 noundef %28, ptr noundef %29, i32 noundef %32, i32 noundef %33, i32 noundef 0)
  br label %35

35:                                               ; preds = %26, %8
  %36 = load i8, ptr %16, align 1
  %37 = zext i8 %36 to i32
  switch i32 %37, label %195 [
    i32 34, label %38
    i32 33, label %57
    i32 35, label %76
  ]

38:                                               ; preds = %35
  %39 = load i32, ptr %15, align 4
  %40 = icmp eq i32 %39, 1
  br i1 %40, label %41, label %48

41:                                               ; preds = %38
  %42 = load ptr, ptr %10, align 8
  %43 = load i32, ptr @hf_ipp_boolean_value, align 4
  %44 = load ptr, ptr %11, align 8
  %45 = load i32, ptr %17, align 4
  %46 = load i32, ptr %15, align 4
  %47 = call ptr @proto_tree_add_item(ptr noundef %42, i32 noundef %43, ptr noundef %44, i32 noundef %45, i32 noundef %46, i32 noundef 0)
  br label %56

48:                                               ; preds = %38
  %49 = load ptr, ptr %10, align 8
  %50 = load i32, ptr @hf_ipp_boolean_value, align 4
  %51 = load ptr, ptr %11, align 8
  %52 = load i32, ptr %17, align 4
  %53 = load i32, ptr %15, align 4
  %54 = load i32, ptr %15, align 4
  %55 = call ptr (ptr, i32, ptr, i32, i32, i64, ptr, ...) @proto_tree_add_boolean_format(ptr noundef %49, i32 noundef %50, ptr noundef %51, i32 noundef %52, i32 noundef %53, i64 noundef 0, ptr noundef @.str.354, i32 noundef %54)
  br label %56

56:                                               ; preds = %48, %41
  br label %204

57:                                               ; preds = %35
  %58 = load i32, ptr %15, align 4
  %59 = icmp eq i32 %58, 4
  br i1 %59, label %60, label %67

60:                                               ; preds = %57
  %61 = load ptr, ptr %10, align 8
  %62 = load i32, ptr @hf_ipp_integer_value, align 4
  %63 = load ptr, ptr %11, align 8
  %64 = load i32, ptr %17, align 4
  %65 = load i32, ptr %15, align 4
  %66 = call ptr @proto_tree_add_item(ptr noundef %61, i32 noundef %62, ptr noundef %63, i32 noundef %64, i32 noundef %65, i32 noundef 0)
  br label %75

67:                                               ; preds = %57
  %68 = load ptr, ptr %10, align 8
  %69 = load i32, ptr @hf_ipp_integer_value, align 4
  %70 = load ptr, ptr %11, align 8
  %71 = load i32, ptr %17, align 4
  %72 = load i32, ptr %15, align 4
  %73 = load i32, ptr %15, align 4
  %74 = call ptr (ptr, i32, ptr, i32, i32, i32, ptr, ...) @proto_tree_add_int_format(ptr noundef %68, i32 noundef %69, ptr noundef %70, i32 noundef %71, i32 noundef %72, i32 noundef 0, ptr noundef @.str.355, i32 noundef %73)
  br label %75

75:                                               ; preds = %67, %60
  br label %204

76:                                               ; preds = %35
  %77 = load i32, ptr %15, align 4
  %78 = icmp eq i32 %77, 4
  br i1 %78, label %79, label %186

79:                                               ; preds = %76
  %80 = load ptr, ptr %14, align 8
  %81 = call i32 @strncmp(ptr noundef %80, ptr noundef @.str.18, i64 noundef 13) #12
  %82 = icmp ne i32 %81, 0
  br i1 %82, label %90, label %83

83:                                               ; preds = %79
  %84 = load ptr, ptr %10, align 8
  %85 = load i32, ptr @hf_ipp_enum_value_printer_state, align 4
  %86 = load ptr, ptr %11, align 8
  %87 = load i32, ptr %17, align 4
  %88 = load i32, ptr %15, align 4
  %89 = call ptr @proto_tree_add_item(ptr noundef %84, i32 noundef %85, ptr noundef %86, i32 noundef %87, i32 noundef %88, i32 noundef 0)
  br label %185

90:                                               ; preds = %79
  %91 = load ptr, ptr %14, align 8
  %92 = call i32 @strncmp(ptr noundef %91, ptr noundef @.str.19, i64 noundef 9) #12
  %93 = icmp ne i32 %92, 0
  br i1 %93, label %101, label %94

94:                                               ; preds = %90
  %95 = load ptr, ptr %10, align 8
  %96 = load i32, ptr @hf_ipp_enum_value_job_state, align 4
  %97 = load ptr, ptr %11, align 8
  %98 = load i32, ptr %17, align 4
  %99 = load i32, ptr %15, align 4
  %100 = call ptr @proto_tree_add_item(ptr noundef %95, i32 noundef %96, ptr noundef %97, i32 noundef %98, i32 noundef %99, i32 noundef 0)
  br label %184

101:                                              ; preds = %90
  %102 = load ptr, ptr %14, align 8
  %103 = call i32 @strncmp(ptr noundef %102, ptr noundef @.str.20, i64 noundef 14) #12
  %104 = icmp ne i32 %103, 0
  br i1 %104, label %112, label %105

105:                                              ; preds = %101
  %106 = load ptr, ptr %10, align 8
  %107 = load i32, ptr @hf_ipp_enum_value_document_state, align 4
  %108 = load ptr, ptr %11, align 8
  %109 = load i32, ptr %17, align 4
  %110 = load i32, ptr %15, align 4
  %111 = call ptr @proto_tree_add_item(ptr noundef %106, i32 noundef %107, ptr noundef %108, i32 noundef %109, i32 noundef %110, i32 noundef 0)
  br label %183

112:                                              ; preds = %101
  %113 = load ptr, ptr %14, align 8
  %114 = call i32 @strncmp(ptr noundef %113, ptr noundef @.str.21, i64 noundef 20) #12
  %115 = icmp ne i32 %114, 0
  br i1 %115, label %123, label %116

116:                                              ; preds = %112
  %117 = load ptr, ptr %10, align 8
  %118 = load i32, ptr @hf_ipp_enum_value_operations_supported, align 4
  %119 = load ptr, ptr %11, align 8
  %120 = load i32, ptr %17, align 4
  %121 = load i32, ptr %15, align 4
  %122 = call ptr @proto_tree_add_item(ptr noundef %117, i32 noundef %118, ptr noundef %119, i32 noundef %120, i32 noundef %121, i32 noundef 0)
  br label %182

123:                                              ; preds = %112
  %124 = load ptr, ptr %14, align 8
  %125 = call i32 @strncmp(ptr noundef %124, ptr noundef @.str.22, i64 noundef 10) #12
  %126 = icmp ne i32 %125, 0
  br i1 %126, label %134, label %127

127:                                              ; preds = %123
  %128 = load ptr, ptr %10, align 8
  %129 = load i32, ptr @hf_ipp_enum_value_finishings, align 4
  %130 = load ptr, ptr %11, align 8
  %131 = load i32, ptr %17, align 4
  %132 = load i32, ptr %15, align 4
  %133 = call ptr @proto_tree_add_item(ptr noundef %128, i32 noundef %129, ptr noundef %130, i32 noundef %131, i32 noundef %132, i32 noundef 0)
  br label %181

134:                                              ; preds = %123
  %135 = load ptr, ptr %14, align 8
  %136 = call i32 @strncmp(ptr noundef %135, ptr noundef @.str.350, i64 noundef 21) #12
  %137 = icmp ne i32 %136, 0
  br i1 %137, label %138, label %142

138:                                              ; preds = %134
  %139 = load ptr, ptr %14, align 8
  %140 = call i32 @strncmp(ptr noundef %139, ptr noundef @.str.351, i64 noundef 22) #12
  %141 = icmp ne i32 %140, 0
  br i1 %141, label %149, label %142

142:                                              ; preds = %138, %134
  %143 = load ptr, ptr %10, align 8
  %144 = load i32, ptr @hf_ipp_enum_value_orientation, align 4
  %145 = load ptr, ptr %11, align 8
  %146 = load i32, ptr %17, align 4
  %147 = load i32, ptr %15, align 4
  %148 = call ptr @proto_tree_add_item(ptr noundef %143, i32 noundef %144, ptr noundef %145, i32 noundef %146, i32 noundef %147, i32 noundef 0)
  br label %180

149:                                              ; preds = %138
  %150 = load ptr, ptr %14, align 8
  %151 = call i32 @strncmp(ptr noundef %150, ptr noundef @.str.24, i64 noundef 13) #12
  %152 = icmp ne i32 %151, 0
  br i1 %152, label %160, label %153

153:                                              ; preds = %149
  %154 = load ptr, ptr %10, align 8
  %155 = load i32, ptr @hf_ipp_enum_value_print_quality, align 4
  %156 = load ptr, ptr %11, align 8
  %157 = load i32, ptr %17, align 4
  %158 = load i32, ptr %15, align 4
  %159 = call ptr @proto_tree_add_item(ptr noundef %154, i32 noundef %155, ptr noundef %156, i32 noundef %157, i32 noundef %158, i32 noundef 0)
  br label %179

160:                                              ; preds = %149
  %161 = load ptr, ptr %14, align 8
  %162 = call i32 @strncmp(ptr noundef %161, ptr noundef @.str.25, i64 noundef 19) #12
  %163 = icmp ne i32 %162, 0
  br i1 %163, label %171, label %164

164:                                              ; preds = %160
  %165 = load ptr, ptr %10, align 8
  %166 = load i32, ptr @hf_ipp_enum_value_transmission_status, align 4
  %167 = load ptr, ptr %11, align 8
  %168 = load i32, ptr %17, align 4
  %169 = load i32, ptr %15, align 4
  %170 = call ptr @proto_tree_add_item(ptr noundef %165, i32 noundef %166, ptr noundef %167, i32 noundef %168, i32 noundef %169, i32 noundef 0)
  br label %178

171:                                              ; preds = %160
  %172 = load ptr, ptr %10, align 8
  %173 = load i32, ptr @hf_ipp_enum_value, align 4
  %174 = load ptr, ptr %11, align 8
  %175 = load i32, ptr %17, align 4
  %176 = load i32, ptr %15, align 4
  %177 = call ptr @proto_tree_add_item(ptr noundef %172, i32 noundef %173, ptr noundef %174, i32 noundef %175, i32 noundef %176, i32 noundef 0)
  br label %178

178:                                              ; preds = %171, %164
  br label %179

179:                                              ; preds = %178, %153
  br label %180

180:                                              ; preds = %179, %142
  br label %181

181:                                              ; preds = %180, %127
  br label %182

182:                                              ; preds = %181, %116
  br label %183

183:                                              ; preds = %182, %105
  br label %184

184:                                              ; preds = %183, %94
  br label %185

185:                                              ; preds = %184, %83
  br label %194

186:                                              ; preds = %76
  %187 = load ptr, ptr %10, align 8
  %188 = load i32, ptr @hf_ipp_enum_value, align 4
  %189 = load ptr, ptr %11, align 8
  %190 = load i32, ptr %17, align 4
  %191 = load i32, ptr %15, align 4
  %192 = load i32, ptr %15, align 4
  %193 = call ptr (ptr, i32, ptr, i32, i32, i32, ptr, ...) @proto_tree_add_int_format_value(ptr noundef %187, i32 noundef %188, ptr noundef %189, i32 noundef %190, i32 noundef %191, i32 noundef 0, ptr noundef @.str.356, i32 noundef %192)
  br label %194

194:                                              ; preds = %186, %185
  br label %204

195:                                              ; preds = %35
  %196 = load ptr, ptr %10, align 8
  %197 = load i32, ptr @hf_ipp_integer_value, align 4
  %198 = load ptr, ptr %11, align 8
  %199 = load i32, ptr %17, align 4
  %200 = load i32, ptr %15, align 4
  %201 = load ptr, ptr %9, align 8
  %202 = load i32, ptr %15, align 4
  %203 = call ptr (ptr, i32, ptr, i32, i32, i32, ptr, ...) @proto_tree_add_int_format(ptr noundef %196, i32 noundef %197, ptr noundef %198, i32 noundef %199, i32 noundef %200, i32 noundef 0, ptr noundef @.str.357, ptr noundef %201, i32 noundef %202)
  br label %204

204:                                              ; preds = %195, %194, %75, %56
  call void @llvm.lifetime.end.p0(i64 4, ptr %17) #10
  ret void
}