; Function Attrs: null_pointer_is_valid sspstrong uwtable
define internal fastcc void @add_integer_value(ptr noundef %0, ptr noundef %1, ptr noundef %2, i32 noundef %3, i32 noundef range(i32 0, 65536) %4, ptr noundef readonly captures(none) %5, i32 noundef range(i32 0, 65536) %6, i8 noundef zeroext %7) unnamed_addr #0 {
  %9 = add i32 %3, 3
  %10 = add nuw nsw i32 %4, 2
  %11 = add i32 %10, %9
  %.not = icmp eq i32 %4, 0
  br i1 %.not, label %15, label %12

12:                                               ; preds = %8
  %13 = load i32, ptr @hf_ipp_name, align 4
  %14 = tail call ptr @proto_tree_add_item(ptr noundef %1, i32 noundef %13, ptr noundef %2, i32 noundef %9, i32 noundef %4, i32 noundef 0)
  br label %15

15:                                               ; preds = %12, %8
  switch i8 %7, label %80 [
    i8 34, label %16
    i8 33, label %23
    i8 35, label %30
  ]

16:                                               ; preds = %15
  %17 = icmp eq i32 %6, 1
  %18 = load i32, ptr @hf_ipp_boolean_value, align 4
  br i1 %17, label %19, label %21

19:                                               ; preds = %16
  %20 = tail call ptr @proto_tree_add_item(ptr noundef %1, i32 noundef %18, ptr noundef %2, i32 noundef %11, i32 noundef 1, i32 noundef 0)
  br label %83

21:                                               ; preds = %16
  %22 = tail call ptr (ptr, i32, ptr, i32, i32, i64, ptr, ...) @proto_tree_add_boolean_format(ptr noundef %1, i32 noundef %18, ptr noundef %2, i32 noundef %11, i32 noundef %6, i64 noundef 0, ptr noundef nonnull @.str.354, i32 noundef %6)
  br label %83

23:                                               ; preds = %15
  %24 = icmp eq i32 %6, 4
  %25 = load i32, ptr @hf_ipp_integer_value, align 4
  br i1 %24, label %26, label %28

26:                                               ; preds = %23
  %27 = tail call ptr @proto_tree_add_item(ptr noundef %1, i32 noundef %25, ptr noundef %2, i32 noundef %11, i32 noundef 4, i32 noundef 0)
  br label %83

28:                                               ; preds = %23
  %29 = tail call ptr (ptr, i32, ptr, i32, i32, i32, ptr, ...) @proto_tree_add_int_format(ptr noundef %1, i32 noundef %25, ptr noundef %2, i32 noundef %11, i32 noundef %6, i32 noundef 0, ptr noundef nonnull @.str.355, i32 noundef %6)
  br label %83

30:                                               ; preds = %15
  %31 = icmp eq i32 %6, 4
  br i1 %31, label %32, label %77

32:                                               ; preds = %30
  %33 = tail call i32 @strncmp(ptr noundef %5, ptr noundef nonnull dereferenceable(14) @.str.18, i64 noundef 13) #11
  %.not85 = icmp eq i32 %33, 0
  br i1 %.not85, label %34, label %37

34:                                               ; preds = %32
  %35 = load i32, ptr @hf_ipp_enum_value_printer_state, align 4
  %36 = tail call ptr @proto_tree_add_item(ptr noundef %1, i32 noundef %35, ptr noundef %2, i32 noundef %11, i32 noundef 4, i32 noundef 0)
  br label %83

37:                                               ; preds = %32
  %38 = tail call i32 @strncmp(ptr noundef %5, ptr noundef nonnull dereferenceable(10) @.str.19, i64 noundef 9) #11
  %.not86 = icmp eq i32 %38, 0
  br i1 %.not86, label %39, label %42

39:                                               ; preds = %37
  %40 = load i32, ptr @hf_ipp_enum_value_job_state, align 4
  %41 = tail call ptr @proto_tree_add_item(ptr noundef %1, i32 noundef %40, ptr noundef %2, i32 noundef %11, i32 noundef 4, i32 noundef 0)
  br label %83

42:                                               ; preds = %37
  %43 = tail call i32 @strncmp(ptr noundef %5, ptr noundef nonnull dereferenceable(15) @.str.20, i64 noundef 14) #11
  %.not87 = icmp eq i32 %43, 0
  br i1 %.not87, label %44, label %47

44:                                               ; preds = %42
  %45 = load i32, ptr @hf_ipp_enum_value_document_state, align 4
  %46 = tail call ptr @proto_tree_add_item(ptr noundef %1, i32 noundef %45, ptr noundef %2, i32 noundef %11, i32 noundef 4, i32 noundef 0)
  br label %83

47:                                               ; preds = %42
  %48 = tail call i32 @strncmp(ptr noundef %5, ptr noundef nonnull dereferenceable(21) @.str.21, i64 noundef 20) #11
  %.not88 = icmp eq i32 %48, 0
  br i1 %.not88, label %49, label %52

49:                                               ; preds = %47
  %50 = load i32, ptr @hf_ipp_enum_value_operations_supported, align 4
  %51 = tail call ptr @proto_tree_add_item(ptr noundef %1, i32 noundef %50, ptr noundef %2, i32 noundef %11, i32 noundef 4, i32 noundef 0)
  br label %83

52:                                               ; preds = %47
  %53 = tail call i32 @strncmp(ptr noundef %5, ptr noundef nonnull dereferenceable(11) @.str.22, i64 noundef 10) #11
  %.not89 = icmp eq i32 %53, 0
  br i1 %.not89, label %54, label %57

54:                                               ; preds = %52
  %55 = load i32, ptr @hf_ipp_enum_value_finishings, align 4
  %56 = tail call ptr @proto_tree_add_item(ptr noundef %1, i32 noundef %55, ptr noundef %2, i32 noundef %11, i32 noundef 4, i32 noundef 0)
  br label %83

57:                                               ; preds = %52
  %58 = tail call i32 @strncmp(ptr noundef %5, ptr noundef nonnull dereferenceable(22) @.str.350, i64 noundef 21) #11
  %.not90 = icmp eq i32 %58, 0
  br i1 %.not90, label %61, label %59

59:                                               ; preds = %57
  %60 = tail call i32 @strncmp(ptr noundef %5, ptr noundef nonnull dereferenceable(23) @.str.351, i64 noundef 22) #11
  %.not91 = icmp eq i32 %60, 0
  br i1 %.not91, label %61, label %64

61:                                               ; preds = %59, %57
  %62 = load i32, ptr @hf_ipp_enum_value_orientation, align 4
  %63 = tail call ptr @proto_tree_add_item(ptr noundef %1, i32 noundef %62, ptr noundef %2, i32 noundef %11, i32 noundef 4, i32 noundef 0)
  br label %83

64:                                               ; preds = %59
  %65 = tail call i32 @strncmp(ptr noundef %5, ptr noundef nonnull dereferenceable(14) @.str.24, i64 noundef 13) #11
  %.not92 = icmp eq i32 %65, 0
  br i1 %.not92, label %66, label %69

66:                                               ; preds = %64
  %67 = load i32, ptr @hf_ipp_enum_value_print_quality, align 4
  %68 = tail call ptr @proto_tree_add_item(ptr noundef %1, i32 noundef %67, ptr noundef %2, i32 noundef %11, i32 noundef 4, i32 noundef 0)
  br label %83

69:                                               ; preds = %64
  %70 = tail call i32 @strncmp(ptr noundef %5, ptr noundef nonnull dereferenceable(20) @.str.25, i64 noundef 19) #11
  %.not93 = icmp eq i32 %70, 0
  br i1 %.not93, label %71, label %74

71:                                               ; preds = %69
  %72 = load i32, ptr @hf_ipp_enum_value_transmission_status, align 4
  %73 = tail call ptr @proto_tree_add_item(ptr noundef %1, i32 noundef %72, ptr noundef %2, i32 noundef %11, i32 noundef 4, i32 noundef 0)
  br label %83

74:                                               ; preds = %69
  %75 = load i32, ptr @hf_ipp_enum_value, align 4
  %76 = tail call ptr @proto_tree_add_item(ptr noundef %1, i32 noundef %75, ptr noundef %2, i32 noundef %11, i32 noundef 4, i32 noundef 0)
  br label %83

77:                                               ; preds = %30
  %78 = load i32, ptr @hf_ipp_enum_value, align 4
  %79 = tail call ptr (ptr, i32, ptr, i32, i32, i32, ptr, ...) @proto_tree_add_int_format_value(ptr noundef %1, i32 noundef %78, ptr noundef %2, i32 noundef %11, i32 noundef %6, i32 noundef 0, ptr noundef nonnull @.str.356, i32 noundef %6)
  br label %83

80:                                               ; preds = %15
  %81 = load i32, ptr @hf_ipp_integer_value, align 4
  %82 = tail call ptr (ptr, i32, ptr, i32, i32, i32, ptr, ...) @proto_tree_add_int_format(ptr noundef %1, i32 noundef %81, ptr noundef %2, i32 noundef %11, i32 noundef %6, i32 noundef 0, ptr noundef nonnull @.str.357, ptr noundef %0, i32 noundef %6)
  br label %83

83:                                               ; preds = %77, %39, %49, %61, %71, %74, %66, %54, %44, %34, %26, %28, %19, %21, %80
  ret void
}